; Function Attrs: mustprogress uwtable
define void @_ZN10PacketList17ctxDecodeAsDialogEv(ptr noundef nonnull align 8 dereferenceable(464) %0) #0 align 2 personality ptr @__gxx_personality_v0 {
  %2 = alloca %class.QVariant, align 8
  %3 = alloca %"class.QMetaObject::Connection", align 8
  %4 = tail call noundef ptr @_ZNK7QObject6senderEv(ptr noundef nonnull align 8 dereferenceable(16) %0)
  %5 = tail call noundef ptr @_ZNK11QMetaObject4castEPK7QObject(ptr noundef nonnull align 8 dereferenceable(56) @_ZN7QAction16staticMetaObjectE, ptr noundef %4)
  %.not = icmp eq ptr %5, null
  br i1 %.not, label %14, label %6

6:                                                ; preds = %1
  call void @_ZNK7QObject8propertyEPKc(ptr dead_on_unwind nonnull writable sret(%class.QVariant) align 8 %2, ptr noundef nonnull align 8 dereferenceable(16) %5, ptr noundef nonnull @.str.53)
  %7 = invoke noundef zeroext i1 @_ZNK8QVariant6toBoolEv(ptr noundef nonnull align 8 dereferenceable(32) %2)
          to label %8 unwind label %15

8:                                                ; preds = %6
  call void @_ZN8QVariantD1Ev(ptr noundef nonnull align 8 dereferenceable(32) %2) #20
  %9 = call noalias noundef nonnull dereferenceable(88) ptr @_Znwm(i64 noundef 88) #21
  %10 = getelementptr inbounds i8, ptr %0, i64 64
  %11 = load ptr, ptr %10, align 8
  invoke void @_ZN14DecodeAsDialogC1EP7QWidgetP13_capture_fileb(ptr noundef nonnull align 8 dereferenceable(88) %9, ptr noundef nonnull %0, ptr noundef %11, i1 noundef zeroext %7)
          to label %12 unwind label %17

12:                                               ; preds = %8
  %13 = load ptr, ptr @mainApp, align 8
  call void @_ZN7QObject7connectEPKS_PKcS1_S3_N2Qt14ConnectionTypeE(ptr dead_on_unwind nonnull writable sret(%"class.QMetaObject::Connection") align 8 %3, ptr noundef nonnull %9, ptr noundef nonnull @.str.55, ptr noundef %13, ptr noundef nonnull @.str.56, i32 noundef 0)
  call void @_ZN11QMetaObject10ConnectionD1Ev(ptr noundef nonnull align 8 dereferenceable(8) %3) #20
  call void @_ZN7QWidget17setWindowModalityEN2Qt14WindowModalityE(ptr noundef nonnull align 8 dereferenceable(40) %9, i32 noundef 2)
  call void @_ZN7QWidget12setAttributeEN2Qt15WidgetAttributeEb(ptr noundef nonnull align 8 dereferenceable(40) %9, i32 noundef 55, i1 noundef zeroext true)
  call void @_ZN7QWidget4showEv(ptr noundef nonnull align 8 dereferenceable(40) %9)
  br label %14

14:                                               ; preds = %1, %12
  ret void

15:                                               ; preds = %6
  %16 = landingpad { ptr, i32 }
          cleanup
  call void @_ZN8QVariantD1Ev(ptr noundef nonnull align 8 dereferenceable(32) %2) #20
  br label %19

17:                                               ; preds = %8
  %18 = landingpad { ptr, i32 }
          cleanup
  call void @_ZdlPv(ptr noundef nonnull %9) #22
  br label %19

19:                                               ; preds = %17, %15
  %.pn = phi { ptr, i32 } [ %18, %17 ], [ %16, %15 ]
  resume { ptr, i32 } %.pn
}